; ModuleID = '44/319.c'
source_filename = "44/319.c"
target datalayout = "e-m:e-p270:32:32-p271:32:32-p272:64:64-i64:64-f80:128-n8:16:32:64-S128"
target triple = "x86_64-pc-linux-gnu"

@.str = private unnamed_addr constant [3 x i8] c"%d\00", align 1
@.str.1 = private unnamed_addr constant [4 x i8] c"%d\0A\00", align 1

; Function Attrs: noinline nounwind uwtable
define dso_local i32 @reverse(i32 %0) #0 {
  %2 = alloca i32, align 4
  %3 = alloca i32, align 4
  %4 = alloca i32, align 4
  %5 = alloca i32, align 4
  store i32 %0, i32* %2, align 4
  store i32 0, i32* %3, align 4
  %6 = load i32, i32* %2, align 4
  store i32 %6, i32* %4, align 4
  store i32 1, i32* %5, align 4
  %7 = load i32, i32* %2, align 4
  %8 = icmp slt i32 %7, 0
  br i1 %8, label %9, label %12

9:                                                ; preds = %1
  store i32 0, i32* %5, align 4
  %10 = load i32, i32* %2, align 4
  %11 = call i32 @abs(i32 %10) #3
  store i32 %11, i32* %4, align 4
  br label %12

12:                                               ; preds = %9, %1
  br label %13

13:                                               ; preds = %16, %12
  %14 = load i32, i32* %4, align 4
  %15 = icmp sgt i32 %14, 0
  br i1 %15, label %16, label %24

16:                                               ; preds = %13
  %17 = load i32, i32* %3, align 4
  %18 = mul nsw i32 %17, 10
  %19 = load i32, i32* %4, align 4
  %20 = srem i32 %19, 10
  %21 = add nsw i32 %18, %20
  store i32 %21, i32* %3, align 4
  %22 = load i32, i32* %4, align 4
  %23 = sdiv i32 %22, 10
  store i32 %23, i32* %4, align 4
  br label %13

24:                                               ; preds = %13
  %25 = load i32, i32* %5, align 4
  %26 = icmp eq i32 %25, 0
  br i1 %26, label %27, label %30

27:                                               ; preds = %24
  %28 = load i32, i32* %3, align 4
  %29 = sub nsw i32 0, %28
  store i32 %29, i32* %3, align 4
  br label %30

30:                                               ; preds = %27, %24
  %31 = load i32, i32* %3, align 4
  ret i32 %31
}

; Function Attrs: nounwind readnone
declare dso_local i32 @abs(i32) #1

; Function Attrs: noinline nounwind uwtable
define dso_local i32 @main() #0 {
  %1 = alloca i32, align 4
  %2 = alloca i32, align 4
  %3 = alloca i32, align 4
  store i32 0, i32* %1, align 4
  store i32 0, i32* %2, align 4
  store i32 0, i32* %3, align 4
  store i32 0, i32* %2, align 4
  br label %4

4:                                                ; preds = %12, %0
  %5 = load i32, i32* %2, align 4
  %6 = icmp slt i32 %5, 6
  br i1 %6, label %7, label %15

7:                                                ; preds = %4
  %8 = call i32 (i8*, ...) @__isoc99_scanf(i8* getelementptr inbounds ([3 x i8], [3 x i8]* @.str, i64 0, i64 0), i32* %3)
  %9 = load i32, i32* %3, align 4
  %10 = call i32 @reverse(i32 %9)
  %11 = call i32 (i8*, ...) @printf(i8* getelementptr inbounds ([4 x i8], [4 x i8]* @.str.1, i64 0, i64 0), i32 %10)
  br label %12

12:                                               ; preds = %7
  %13 = load i32, i32* %2, align 4
  %14 = add nsw i32 %13, 1
  store i32 %14, i32* %2, align 4
  br label %4

15:                                               ; preds = %4
  ret i32 0
}

declare dso_local i32 @__isoc99_scanf(i8*, ...) #2

declare dso_local i32 @printf(i8*, ...) #2


!llvm.module.flags = !{!0}
!llvm.ident = !{!1}

!0 = !{i32 1, !"wchar_size", i32 4}
!1 = !{!"clang version 10.0.0-4ubuntu1 "}
